target datalayout = "e-m:e-p270:32:32-p271:32:32-p272:64:64-i64:64-i128:128-f80:128-n8:16:32:64-S128"
target triple = "x86_64-pc-linux-gnu"

%union.pthread_cond_t = type { %struct.__pthread_cond_s }
%struct.__pthread_cond_s = type { %union.__atomic_wide_counter, %union.__atomic_wide_counter, [2 x i32], [2 x i32], i32, i32, [2 x i32] }
%union.__atomic_wide_counter = type { i64 }
%union.pthread_mutex_t = type { %struct.__pthread_mutex_s }
%struct.__pthread_mutex_s = type { i32, i32, i32, i32, i32, i16, i16, %struct.__pthread_internal_list }
%struct.__pthread_internal_list = type { ptr, ptr }
%struct.slurm_conf_t = type { i64, ptr, i16, ptr, ptr, ptr, ptr, ptr, i16, ptr, ptr, ptr, ptr, ptr, ptr, ptr, i16, ptr, ptr, ptr, ptr, i16, ptr, ptr, ptr, i64, ptr, ptr, ptr, ptr, i16, ptr, ptr, i16, i32, ptr, i32, ptr, i32, i32, ptr, ptr, i64, i64, ptr, i16, i16, ptr, i32, i32, ptr, i32, ptr, i32, i16, i16, i16, ptr, i16, i16, ptr, ptr, i32, i16, i16, ptr, i32, i16, ptr, ptr, ptr, ptr, i16, ptr, ptr, ptr, ptr, i32, ptr, ptr, ptr, ptr, i16, i16, ptr, i32, i32, i32, i16, i16, ptr, ptr, i16, ptr, ptr, i32, i32, i32, i32, i32, i64, i32, i32, i16, ptr, ptr, i32, ptr, ptr, ptr, i16, i32, ptr, ptr, i16, ptr, ptr, i32, i16, ptr, ptr, ptr, ptr, i32, i32, i16, i16, i32, ptr, i16, ptr, i32, i32, i32, i32, i32, i32, ptr, i16, ptr, ptr, i32, i16, ptr, i32, i16, i16, ptr, ptr, ptr, i16, ptr, ptr, ptr, ptr, i16, i16, ptr, i16, ptr, i16, ptr, i16, ptr, i16, ptr, ptr, ptr, ptr, i16, ptr, ptr, ptr, i32, ptr, i32, ptr, ptr, i16, ptr, ptr, i32, i16, ptr, ptr, i16, i16, ptr, i16, ptr, ptr, ptr, i32, ptr, i16, i16, ptr, ptr, ptr, ptr, ptr, ptr, ptr, ptr, i16, i32, i16, ptr, ptr, ptr, ptr, i32, ptr, ptr, ptr, i16, ptr, ptr, ptr, i16, ptr, i16, ptr, i16, i16, ptr }
%struct.stepd_step_rec_t = type { ptr, ptr, i32, %union.pthread_cond_t, %union.pthread_mutex_t, %struct.slurm_step_id_msg, i32, i32, i32, i32, i32, i32, ptr, ptr, i32, i32, ptr, i32, i32, i32, i32, i32, ptr, ptr, ptr, ptr, i32, i32, i64, i64, i16, i32, ptr, ptr, ptr, i32, ptr, i32, ptr, i32, ptr, i16, i32, i32, i32, ptr, i32, ptr, ptr, ptr, ptr, i32, i32, ptr, ptr, i8, i8, i8, i64, i32, ptr, ptr, ptr, ptr, ptr, ptr, ptr, ptr, ptr, ptr, i32, i32, ptr, i8, %union.pthread_cond_t, %union.pthread_mutex_t, i64, ptr, i32, i32, i32, ptr, i64, ptr, ptr, i8, ptr, i16, ptr, ptr, ptr, ptr, ptr, ptr, i64, ptr, i64, ptr, i16, i8, i16, i32, ptr, i16, ptr, ptr, i16, ptr, ptr, ptr, i8 }
%struct.slurm_step_id_msg = type { i64, i32, i32, i32 }
%struct.priv_state = type { i32, i32, ptr, i32 }

@slurm_conf = external global %struct.slurm_conf_t, align 8
@.str.86 = private unnamed_addr constant [16 x i8] c"home_xauthority\00", align 1
@.str.97 = private unnamed_addr constant [43 x i8] c"%s: Unable to drop privileges before xauth\00", align 1
@__func__._set_xauthority = private unnamed_addr constant [16 x i8] c"_set_xauthority\00", align 1
@.str.98 = private unnamed_addr constant [51 x i8] c"%s: failed to create temporary XAUTHORITY file: %m\00", align 1
@.str.99 = private unnamed_addr constant [24 x i8] c"%s: failed to run xauth\00", align 1
@.str.100 = private unnamed_addr constant [45 x i8] c"%s: Unable to reclaim privileges after xauth\00", align 1

; Function Attrs: nounwind uwtable
define internal i32 @_set_xauthority(ptr noundef %0) #0 {
  %2 = alloca i32, align 4
  %3 = alloca ptr, align 8
  %4 = alloca %struct.priv_state, align 8
  %5 = alloca i32, align 4
  %6 = alloca i32, align 4
  %7 = alloca i32, align 4
  store ptr %0, ptr %3, align 8
  call void @llvm.lifetime.start.p0(i64 24, ptr %4) #12
  call void @llvm.memset.p0.i64(ptr align 8 %4, i8 0, i64 24, i1 false)
  call void @llvm.lifetime.start.p0(i64 4, ptr %5) #12
  store i32 0, ptr %5, align 4
  %8 = load ptr, ptr %3, align 8
  %9 = call i32 @drop_privileges(ptr noundef %8, i1 noundef zeroext true, ptr noundef %4, i1 noundef zeroext false)
  %10 = icmp slt i32 %9, 0
  br i1 %10, label %11, label %13

11:                                               ; preds = %1
  %12 = call i32 (ptr, ...) @error(ptr noundef @.str.97, ptr noundef @__func__._set_xauthority)
  store i32 -1, ptr %2, align 4
  store i32 1, ptr %6, align 4
  br label %55

13:                                               ; preds = %1
  %14 = load ptr, ptr getelementptr inbounds nuw (%struct.slurm_conf_t, ptr @slurm_conf, i32 0, i32 225), align 8
  %15 = call ptr @xstrcasestr(ptr noundef %14, ptr noundef @.str.86)
  %16 = icmp ne ptr %15, null
  br i1 %16, label %32, label %17

17:                                               ; preds = %13
  call void @llvm.lifetime.start.p0(i64 4, ptr %7) #12
  %18 = call i32 @umask(i32 noundef 63) #12
  %19 = load ptr, ptr %3, align 8
  %20 = getelementptr inbounds nuw %struct.stepd_step_rec_t, ptr %19, i32 0, i32 107
  %21 = load ptr, ptr %20, align 8
  %22 = call i32 @mkstemp(ptr noundef %21)
  store i32 %22, ptr %7, align 4
  %23 = icmp eq i32 %22, -1
  br i1 %23, label %24, label %26

24:                                               ; preds = %17
  %25 = call i32 (ptr, ...) @error(ptr noundef @.str.98, ptr noundef @__func__._set_xauthority)
  store i32 -1, ptr %5, align 4
  store i32 2, ptr %6, align 4
  br label %29

26:                                               ; preds = %17
  %27 = load i32, ptr %7, align 4
  %28 = call i32 @close(i32 noundef %27)
  store i32 0, ptr %6, align 4
  br label %29

29:                                               ; preds = %24, %26
  call void @llvm.lifetime.end.p0(i64 4, ptr %7) #12
  %30 = load i32, ptr %6, align 4
  switch i32 %30, label %55 [
    i32 0, label %31
    i32 2, label %48
  ]

31:                                               ; preds = %29
  br label %32

32:                                               ; preds = %31, %13
  %33 = load ptr, ptr %3, align 8
  %34 = getelementptr inbounds nuw %struct.stepd_step_rec_t, ptr %33, i32 0, i32 107
  %35 = load ptr, ptr %34, align 8
  %36 = load ptr, ptr %3, align 8
  %37 = getelementptr inbounds nuw %struct.stepd_step_rec_t, ptr %36, i32 0, i32 104
  %38 = load ptr, ptr %37, align 8
  %39 = load ptr, ptr %3, align 8
  %40 = getelementptr inbounds nuw %struct.stepd_step_rec_t, ptr %39, i32 0, i32 101
  %41 = load i32, ptr %40, align 8
  %42 = trunc i32 %41 to i16
  %43 = call i32 @x11_set_xauth(ptr noundef %35, ptr noundef %38, i16 noundef zeroext %42)
  %44 = icmp ne i32 %43, 0
  br i1 %44, label %45, label %47

45:                                               ; preds = %32
  %46 = call i32 (ptr, ...) @error(ptr noundef @.str.99, ptr noundef @__func__._set_xauthority)
  store i32 -1, ptr %5, align 4
  br label %47

47:                                               ; preds = %45, %32
  br label %48

48:                                               ; preds = %47, %29
  %49 = call i32 @reclaim_privileges(ptr noundef %4)
  %50 = icmp slt i32 %49, 0
  br i1 %50, label %51, label %53

51:                                               ; preds = %48
  %52 = call i32 (ptr, ...) @error(ptr noundef @.str.100, ptr noundef @__func__._set_xauthority)
  store i32 -1, ptr %2, align 4
  store i32 1, ptr %6, align 4
  br label %55

53:                                               ; preds = %48
  %54 = load i32, ptr %5, align 4
  store i32 %54, ptr %2, align 4
  store i32 1, ptr %6, align 4
  br label %55

55:                                               ; preds = %53, %51, %29, %11
  call void @llvm.lifetime.end.p0(i64 4, ptr %5) #12
  call void @llvm.lifetime.end.p0(i64 24, ptr %4) #12
  %56 = load i32, ptr %2, align 4
  ret i32 %56
}