; Function Attrs: nounwind uwtable
define internal fastcc range(i32 -1, 1) i32 @_set_xauthority(ptr noundef %0) unnamed_addr #0 {
  %2 = alloca %struct.priv_state, align 8
  call void @llvm.lifetime.start.p0(i64 24, ptr nonnull %2) #17
  call void @llvm.memset.p0.i64(ptr noundef nonnull align 8 dereferenceable(24) %2, i8 0, i64 24, i1 false)
  %3 = call i32 @drop_privileges(ptr noundef %0, i1 noundef zeroext true, ptr noundef nonnull %2, i1 noundef zeroext false) #17
  %4 = icmp slt i32 %3, 0
  br i1 %4, label %.sink.split16, label %5

5:                                                ; preds = %1
  %6 = load ptr, ptr getelementptr inbounds nuw (i8, ptr @slurm_conf, i64 1528), align 8
  %7 = call ptr @xstrcasestr(ptr noundef %6, ptr noundef nonnull @.str.86) #17
  %.not = icmp eq ptr %7, null
  br i1 %.not, label %8, label %15

8:                                                ; preds = %5
  %9 = call i32 @umask(i32 noundef 63) #17
  %10 = getelementptr inbounds nuw i8, ptr %0, i64 880
  %11 = load ptr, ptr %10, align 8
  %12 = call i32 @mkstemp(ptr noundef %11) #17
  %13 = icmp eq i32 %12, -1
  br i1 %13, label %.sink.split, label %.thread

.thread:                                          ; preds = %8
  %14 = call i32 @close(i32 noundef %12) #17
  br label %15

15:                                               ; preds = %.thread, %5
  %16 = getelementptr inbounds nuw i8, ptr %0, i64 880
  %17 = load ptr, ptr %16, align 8
  %18 = getelementptr inbounds nuw i8, ptr %0, i64 856
  %19 = load ptr, ptr %18, align 8
  %20 = getelementptr inbounds nuw i8, ptr %0, i64 832
  %21 = load i32, ptr %20, align 8
  %22 = trunc i32 %21 to i16
  %23 = call i32 @x11_set_xauth(ptr noundef %17, ptr noundef %19, i16 noundef zeroext %22) #17
  %.not11 = icmp eq i32 %23, 0
  br i1 %.not11, label %25, label %.sink.split

.sink.split:                                      ; preds = %15, %8
  %.str.98.sink = phi ptr [ @.str.98, %8 ], [ @.str.99, %15 ]
  %24 = call i32 (ptr, ...) @error(ptr noundef nonnull %.str.98.sink, ptr noundef nonnull @__func__._set_xauthority) #17
  br label %25

25:                                               ; preds = %.sink.split, %15
  %.2 = phi i32 [ 0, %15 ], [ -1, %.sink.split ]
  %26 = call i32 @reclaim_privileges(ptr noundef nonnull %2) #17
  %27 = icmp slt i32 %26, 0
  br i1 %27, label %.sink.split16, label %29

.sink.split16:                                    ; preds = %25, %1
  %.str.100.sink = phi ptr [ @.str.97, %1 ], [ @.str.100, %25 ]
  %28 = call i32 (ptr, ...) @error(ptr noundef nonnull %.str.100.sink, ptr noundef nonnull @__func__._set_xauthority) #17
  br label %29

29:                                               ; preds = %.sink.split16, %25
  %.0 = phi i32 [ %.2, %25 ], [ -1, %.sink.split16 ]
  call void @llvm.lifetime.end.p0(i64 24, ptr nonnull %2) #17
  ret i32 %.0
}